; ModuleID = '55/577.c'
source_filename = "55/577.c"
target datalayout = "e-m:e-p270:32:32-p271:32:32-p272:64:64-i64:64-f80:128-n8:16:32:64-S128"
target triple = "x86_64-pc-linux-gnu"

@.str = private unnamed_addr constant [3 x i8] c"%d\00", align 1
@.str.1 = private unnamed_addr constant [3 x i8] c"%s\00", align 1
@.str.2 = private unnamed_addr constant [3 x i8] c"%c\00", align 1

; Function Attrs: noinline nounwind uwtable
define dso_local i32 @main() #0 {
  %1 = alloca i32, align 4
  %2 = alloca i32, align 4
  %3 = alloca i32, align 4
  %4 = alloca [100 x i8], align 16
  %5 = alloca i64, align 8
  %6 = alloca i32, align 4
  %7 = alloca i32, align 4
  %8 = alloca i32, align 4
  %9 = alloca i32, align 4
  %10 = alloca i32, align 4
  %11 = alloca i32, align 4
  %12 = alloca i32, align 4
  store i32 0, i32* %1, align 4
  store i64 0, i64* %5, align 8
  store i32 0, i32* %6, align 4
  br label %13

13:                                               ; preds = %20, %0
  %14 = load i32, i32* %6, align 4
  %15 = icmp slt i32 %14, 100
  br i1 %15, label %16, label %23

16:                                               ; preds = %13
  %17 = load i32, i32* %6, align 4
  %18 = sext i32 %17 to i64
  %19 = getelementptr inbounds [100 x i8], [100 x i8]* %4, i64 0, i64 %18
  store i8 0, i8* %19, align 1
  br label %20

20:                                               ; preds = %16
  %21 = load i32, i32* %6, align 4
  %22 = add nsw i32 %21, 1
  store i32 %22, i32* %6, align 4
  br label %13

23:                                               ; preds = %13
  %24 = call i32 (i8*, ...) @__isoc99_scanf(i8* getelementptr inbounds ([3 x i8], [3 x i8]* @.str, i64 0, i64 0), i32* %2)
  %25 = call i32 (i8*, ...) @__isoc99_scanf(i8* getelementptr inbounds ([3 x i8], [3 x i8]* @.str.1, i64 0, i64 0), [100 x i8]* %4)
  %26 = call i32 (i8*, ...) @__isoc99_scanf(i8* getelementptr inbounds ([3 x i8], [3 x i8]* @.str, i64 0, i64 0), i32* %3)
  store i32 0, i32* %7, align 4
  br label %27

27:                                               ; preds = %111, %23
  %28 = load i32, i32* %7, align 4
  %29 = icmp slt i32 %28, 100
  br i1 %29, label %30, label %114

30:                                               ; preds = %27
  %31 = load i32, i32* %7, align 4
  %32 = sext i32 %31 to i64
  %33 = getelementptr inbounds [100 x i8], [100 x i8]* %4, i64 0, i64 %32
  %34 = load i8, i8* %33, align 1
  %35 = sext i8 %34 to i32
  %36 = icmp sge i32 %35, 48
  br i1 %36, label %37, label %56

37:                                               ; preds = %30
  %38 = load i32, i32* %7, align 4
  %39 = sext i32 %38 to i64
  %40 = getelementptr inbounds [100 x i8], [100 x i8]* %4, i64 0, i64 %39
  %41 = load i8, i8* %40, align 1
  %42 = sext i8 %41 to i32
  %43 = icmp sle i32 %42, 57
  br i1 %43, label %44, label %56

44:                                               ; preds = %37
  %45 = load i64, i64* %5, align 8
  %46 = load i32, i32* %2, align 4
  %47 = sext i32 %46 to i64
  %48 = mul nsw i64 %45, %47
  %49 = load i32, i32* %7, align 4
  %50 = sext i32 %49 to i64
  %51 = getelementptr inbounds [100 x i8], [100 x i8]* %4, i64 0, i64 %50
  %52 = load i8, i8* %51, align 1
  %53 = sext i8 %52 to i64
  %54 = add nsw i64 %48, %53
  %55 = sub nsw i64 %54, 48
  store i64 %55, i64* %5, align 8
  br label %56

56:                                               ; preds = %44, %37, %30
  %57 = load i32, i32* %7, align 4
  %58 = sext i32 %57 to i64
  %59 = getelementptr inbounds [100 x i8], [100 x i8]* %4, i64 0, i64 %58
  %60 = load i8, i8* %59, align 1
  %61 = sext i8 %60 to i32
  %62 = icmp sge i32 %61, 97
  br i1 %62, label %63, label %83

63:                                               ; preds = %56
  %64 = load i32, i32* %7, align 4
  %65 = sext i32 %64 to i64
  %66 = getelementptr inbounds [100 x i8], [100 x i8]* %4, i64 0, i64 %65
  %67 = load i8, i8* %66, align 1
  %68 = sext i8 %67 to i32
  %69 = icmp sle i32 %68, 122
  br i1 %69, label %70, label %83

70:                                               ; preds = %63
  %71 = load i64, i64* %5, align 8
  %72 = load i32, i32* %2, align 4
  %73 = sext i32 %72 to i64
  %74 = mul nsw i64 %71, %73
  %75 = load i32, i32* %7, align 4
  %76 = sext i32 %75 to i64
  %77 = getelementptr inbounds [100 x i8], [100 x i8]* %4, i64 0, i64 %76
  %78 = load i8, i8* %77, align 1
  %79 = sext i8 %78 to i64
  %80 = add nsw i64 %74, %79
  %81 = sub nsw i64 %80, 97
  %82 = add nsw i64 %81, 10
  store i64 %82, i64* %5, align 8
  br label %83

83:                                               ; preds = %70, %63, %56
  %84 = load i32, i32* %7, align 4
  %85 = sext i32 %84 to i64
  %86 = getelementptr inbounds [100 x i8], [100 x i8]* %4, i64 0, i64 %85
  %87 = load i8, i8* %86, align 1
  %88 = sext i8 %87 to i32
  %89 = icmp sge i32 %88, 65
  br i1 %89, label %90, label %110

90:                                               ; preds = %83
  %91 = load i32, i32* %7, align 4
  %92 = sext i32 %91 to i64
  %93 = getelementptr inbounds [100 x i8], [100 x i8]* %4, i64 0, i64 %92
  %94 = load i8, i8* %93, align 1
  %95 = sext i8 %94 to i32
  %96 = icmp sle i32 %95, 90
  br i1 %96, label %97, label %110

97:                                               ; preds = %90
  %98 = load i64, i64* %5, align 8
  %99 = load i32, i32* %2, align 4
  %100 = sext i32 %99 to i64
  %101 = mul nsw i64 %98, %100
  %102 = load i32, i32* %7, align 4
  %103 = sext i32 %102 to i64
  %104 = getelementptr inbounds [100 x i8], [100 x i8]* %4, i64 0, i64 %103
  %105 = load i8, i8* %104, align 1
  %106 = sext i8 %105 to i64
  %107 = add nsw i64 %101, %106
  %108 = sub nsw i64 %107, 65
  %109 = add nsw i64 %108, 10
  store i64 %109, i64* %5, align 8
  br label %110

110:                                              ; preds = %97, %90, %83
  br label %111

111:                                              ; preds = %110
  %112 = load i32, i32* %7, align 4
  %113 = add nsw i32 %112, 1
  store i32 %113, i32* %7, align 4
  br label %27

114:                                              ; preds = %27
  store i32 0, i32* %8, align 4
  br label %115

115:                                              ; preds = %122, %114
  %116 = load i32, i32* %8, align 4
  %117 = icmp slt i32 %116, 100
  br i1 %117, label %118, label %125

118:                                              ; preds = %115
  %119 = load i32, i32* %8, align 4
  %120 = sext i32 %119 to i64
  %121 = getelementptr inbounds [100 x i8], [100 x i8]* %4, i64 0, i64 %120
  store i8 0, i8* %121, align 1
  br label %122

122:                                              ; preds = %118
  %123 = load i32, i32* %8, align 4
  %124 = add nsw i32 %123, 1
  store i32 %124, i32* %8, align 4
  br label %115

125:                                              ; preds = %115
  %126 = load i64, i64* %5, align 8
  %127 = trunc i64 %126 to i32
  store i32 %127, i32* %10, align 4
  store i32 0, i32* %11, align 4
  br label %128

128:                                              ; preds = %157, %125
  %129 = load i32, i32* %10, align 4
  %130 = load i32, i32* %3, align 4
  %131 = srem i32 %129, %130
  store i32 %131, i32* %9, align 4
  %132 = load i32, i32* %10, align 4
  %133 = load i32, i32* %3, align 4
  %134 = sdiv i32 %132, %133
  store i32 %134, i32* %10, align 4
  %135 = load i32, i32* %9, align 4
  %136 = icmp sge i32 %135, 10
  br i1 %136, label %137, label %145

137:                                              ; preds = %128
  %138 = load i32, i32* %9, align 4
  %139 = sub nsw i32 %138, 10
  %140 = add nsw i32 %139, 65
  %141 = trunc i32 %140 to i8
  %142 = load i32, i32* %11, align 4
  %143 = sext i32 %142 to i64
  %144 = getelementptr inbounds [100 x i8], [100 x i8]* %4, i64 0, i64 %143
  store i8 %141, i8* %144, align 1
  br label %152

145:                                              ; preds = %128
  %146 = load i32, i32* %9, align 4
  %147 = add nsw i32 %146, 48
  %148 = trunc i32 %147 to i8
  %149 = load i32, i32* %11, align 4
  %150 = sext i32 %149 to i64
  %151 = getelementptr inbounds [100 x i8], [100 x i8]* %4, i64 0, i64 %150
  store i8 %148, i8* %151, align 1
  br label %152

152:                                              ; preds = %145, %137
  %153 = load i32, i32* %10, align 4
  %154 = icmp eq i32 %153, 0
  br i1 %154, label %155, label %156

155:                                              ; preds = %152
  br label %160

156:                                              ; preds = %152
  br label %157

157:                                              ; preds = %156
  %158 = load i32, i32* %11, align 4
  %159 = add nsw i32 %158, 1
  store i32 %159, i32* %11, align 4
  br label %128

160:                                              ; preds = %155
  store i32 99, i32* %12, align 4
  br label %161

161:                                              ; preds = %179, %160
  %162 = load i32, i32* %12, align 4
  %163 = icmp sge i32 %162, 0
  br i1 %163, label %164, label %182

164:                                              ; preds = %161
  %165 = load i32, i32* %12, align 4
  %166 = sext i32 %165 to i64
  %167 = getelementptr inbounds [100 x i8], [100 x i8]* %4, i64 0, i64 %166
  %168 = load i8, i8* %167, align 1
  %169 = sext i8 %168 to i32
  %170 = icmp ne i32 %169, 0
  br i1 %170, label %171, label %178

171:                                              ; preds = %164
  %172 = load i32, i32* %12, align 4
  %173 = sext i32 %172 to i64
  %174 = getelementptr inbounds [100 x i8], [100 x i8]* %4, i64 0, i64 %173
  %175 = load i8, i8* %174, align 1
  %176 = sext i8 %175 to i32
  %177 = call i32 (i8*, ...) @printf(i8* getelementptr inbounds ([3 x i8], [3 x i8]* @.str.2, i64 0, i64 0), i32 %176)
  br label %178

178:                                              ; preds = %171, %164
  br label %179

179:                                              ; preds = %178
  %180 = load i32, i32* %12, align 4
  %181 = add nsw i32 %180, -1
  store i32 %181, i32* %12, align 4
  br label %161

182:                                              ; preds = %161
  ret i32 0
}

declare dso_local i32 @__isoc99_scanf(i8*, ...) #1

declare dso_local i32 @printf(i8*, ...) #1


!llvm.module.flags = !{!0}
!llvm.ident = !{!1}

!0 = !{i32 1, !"wchar_size", i32 4}
!1 = !{!"clang version 10.0.0-4ubuntu1 "}
